target datalayout = "e-m:e-p270:32:32-p271:32:32-p272:64:64-i64:64-i128:128-f80:128-n8:16:32:64-S128"
target triple = "x86_64-pc-linux-gnu"

%struct.DES_ks = type { [16 x %union.anon] }
%union.anon = type { [2 x i32] }

@.str.24 = private unnamed_addr constant [26 x i8] c"../openssl/test/destest.c\00", align 1
@.str.32 = private unnamed_addr constant [35 x i8] c"DES_set_key_checked(&cbc_key, &ks)\00", align 1
@.str.33 = private unnamed_addr constant [2 x i8] c"0\00", align 1
@cbc_key = internal global [8 x i8] c"\01#Eg\89\AB\CD\EF", align 1
@cbc_iv = internal global [8 x i8] c"\FE\DC\BA\98vT2\10", align 1
@cbc_data = internal global <{ [30 x i8], [10 x i8] }> <{ [30 x i8] c"7654321 Now is the time for \001", [10 x i8] zeroinitializer }>, align 16

; Function Attrs: nounwind uwtable
define internal i32 @test_output_align(i32 noundef %0) #0 {
  %2 = alloca i32, align 4
  %3 = alloca i32, align 4
  %4 = alloca [40 x i8], align 16
  %5 = alloca [8 x i8], align 1
  %6 = alloca %struct.DES_ks, align 4
  %7 = alloca i64, align 8
  %8 = alloca i32, align 4
  store i32 %0, ptr %3, align 4, !tbaa !4
  call void @llvm.lifetime.start.p0(i64 40, ptr %4) #6
  call void @llvm.lifetime.start.p0(i64 8, ptr %5) #6
  call void @llvm.lifetime.start.p0(i64 128, ptr %6) #6
  call void @llvm.lifetime.start.p0(i64 8, ptr %7) #6
  %9 = call i64 @strlen(ptr noundef @cbc_data) #7
  %10 = add i64 %9, 1
  store i64 %10, ptr %7, align 8, !tbaa !8
  %11 = getelementptr inbounds [40 x i8], ptr %4, i64 0, i64 0
  call void @llvm.memset.p0.i64(ptr align 16 %11, i8 0, i64 40, i1 false)
  %12 = getelementptr inbounds [8 x i8], ptr %5, i64 0, i64 0
  call void @llvm.memcpy.p0.p0.i64(ptr align 1 %12, ptr align 1 @cbc_iv, i64 8, i1 false)
  %13 = call i32 @DES_set_key_checked(ptr noundef @cbc_key, ptr noundef %6)
  %14 = call i32 @test_int_eq(ptr noundef @.str.24, i32 noundef 475, ptr noundef @.str.32, ptr noundef @.str.33, i32 noundef %13, i32 noundef 0)
  %15 = icmp ne i32 %14, 0
  br i1 %15, label %17, label %16

16:                                               ; preds = %1
  store i32 0, ptr %2, align 4
  store i32 1, ptr %8, align 4
  br label %22

17:                                               ; preds = %1
  %18 = load i32, ptr %3, align 4, !tbaa !4
  %19 = sext i32 %18 to i64
  %20 = getelementptr inbounds [40 x i8], ptr %4, i64 0, i64 %19
  %21 = load i64, ptr %7, align 8, !tbaa !8
  call void @DES_ncbc_encrypt(ptr noundef @cbc_data, ptr noundef %20, i64 noundef %21, ptr noundef %6, ptr noundef %5, i32 noundef 1)
  store i32 1, ptr %2, align 4
  store i32 1, ptr %8, align 4
  br label %22

22:                                               ; preds = %17, %16
  call void @llvm.lifetime.end.p0(i64 8, ptr %7) #6
  call void @llvm.lifetime.end.p0(i64 128, ptr %6) #6
  call void @llvm.lifetime.end.p0(i64 8, ptr %5) #6
  call void @llvm.lifetime.end.p0(i64 40, ptr %4) #6
  %23 = load i32, ptr %2, align 4
  ret i32 %23
}