; Function Attrs: nounwind uwtable
define internal range(i32 0, 2) i32 @test_output_align(i32 noundef %0) #0 {
  %2 = alloca [40 x i8], align 16
  %3 = alloca [8 x i8], align 8
  %4 = alloca %struct.DES_ks, align 4
  call void @llvm.lifetime.start.p0(i64 40, ptr nonnull %2) #6
  call void @llvm.lifetime.start.p0(i64 8, ptr nonnull %3) #6
  call void @llvm.lifetime.start.p0(i64 128, ptr nonnull %4) #6
  %5 = tail call i64 @strlen(ptr noundef nonnull dereferenceable(1) @cbc_data) #7
  call void @llvm.memset.p0.i64(ptr noundef nonnull align 16 dereferenceable(40) %2, i8 0, i64 40, i1 false)
  %6 = load i64, ptr @cbc_iv, align 8
  store i64 %6, ptr %3, align 8
  %7 = call i32 @DES_set_key_checked(ptr noundef nonnull @cbc_key, ptr noundef nonnull %4) #6
  %8 = call i32 @test_int_eq(ptr noundef nonnull @.str.24, i32 noundef 475, ptr noundef nonnull @.str.32, ptr noundef nonnull @.str.33, i32 noundef %7, i32 noundef 0) #6
  %.not = icmp eq i32 %8, 0
  br i1 %.not, label %13, label %9

9:                                                ; preds = %1
  %10 = add i64 %5, 1
  %11 = sext i32 %0 to i64
  %12 = getelementptr inbounds [40 x i8], ptr %2, i64 0, i64 %11
  call void @DES_ncbc_encrypt(ptr noundef nonnull @cbc_data, ptr noundef nonnull %12, i64 noundef %10, ptr noundef nonnull %4, ptr noundef nonnull %3, i32 noundef 1) #6
  br label %13

13:                                               ; preds = %1, %9
  %.0 = phi i32 [ 1, %9 ], [ 0, %1 ]
  call void @llvm.lifetime.end.p0(i64 128, ptr nonnull %4) #6
  call void @llvm.lifetime.end.p0(i64 8, ptr nonnull %3) #6
  call void @llvm.lifetime.end.p0(i64 40, ptr nonnull %2) #6
  ret i32 %.0
}